target datalayout = "e-m:e-p270:32:32-p271:32:32-p272:64:64-i64:64-i128:128-f80:128-n8:16:32:64-S128"
target triple = "x86_64-pc-linux-gnu"

%"class.llvm::LLT" = type { i64 }
%class.anon.244 = type { %"class.llvm::LLT", %"class.llvm::LLT", %"class.llvm::LLT", %"class.llvm::LLT", %"class.llvm::LLT", %"class.llvm::LLT", %"class.llvm::LLT", %"class.llvm::LLT", %"class.llvm::LLT" }
%"class.llvm::ArrayRef.537" = type { ptr, i64 }
%"struct.llvm::LegalityQuery" = type { i32, %"class.llvm::ArrayRef.537", %"class.llvm::ArrayRef.542" }
%"class.llvm::ArrayRef.542" = type { ptr, i64 }

; Function Attrs: mustprogress nounwind uwtable
define linkonce_odr hidden noundef zeroext i1 @_ZNK4llvm3LLTeqERKS0_(ptr noundef nonnull align 8 dereferenceable(8) %0, ptr noundef nonnull align 8 dereferenceable(8) %1) #0 comdat align 2 {
  %3 = alloca ptr, align 8
  %4 = alloca ptr, align 8
  store ptr %0, ptr %3, align 8
  store ptr %1, ptr %4, align 8
  %5 = load ptr, ptr %3, align 8
  %6 = load i64, ptr %5, align 8
  %7 = lshr i64 %6, 1
  %8 = and i64 %7, 1
  %9 = trunc i64 %8 to i32
  %10 = load ptr, ptr %4, align 8
  %11 = load i64, ptr %10, align 8
  %12 = lshr i64 %11, 1
  %13 = and i64 %12, 1
  %14 = trunc i64 %13 to i32
  %15 = icmp eq i32 %9, %14
  br i1 %15, label %16, label %43

16:                                               ; preds = %2
  %17 = load i64, ptr %5, align 8
  %18 = lshr i64 %17, 2
  %19 = and i64 %18, 1
  %20 = trunc i64 %19 to i32
  %21 = load ptr, ptr %4, align 8
  %22 = load i64, ptr %21, align 8
  %23 = lshr i64 %22, 2
  %24 = and i64 %23, 1
  %25 = trunc i64 %24 to i32
  %26 = icmp eq i32 %20, %25
  br i1 %26, label %27, label %43

27:                                               ; preds = %16
  %28 = load i64, ptr %5, align 8
  %29 = and i64 %28, 1
  %30 = trunc i64 %29 to i32
  %31 = load ptr, ptr %4, align 8
  %32 = load i64, ptr %31, align 8
  %33 = and i64 %32, 1
  %34 = trunc i64 %33 to i32
  %35 = icmp eq i32 %30, %34
  br i1 %35, label %36, label %43

36:                                               ; preds = %27
  %37 = load ptr, ptr %4, align 8
  %38 = load i64, ptr %37, align 8
  %39 = lshr i64 %38, 3
  %40 = load i64, ptr %5, align 8
  %41 = lshr i64 %40, 3
  %42 = icmp eq i64 %39, %41
  br label %43

43:                                               ; preds = %36, %27, %16, %2
  %44 = phi i1 [ false, %27 ], [ false, %16 ], [ false, %2 ], [ %42, %36 ]
  ret i1 %44
}

; Function Attrs: mustprogress nounwind uwtable
define linkonce_odr hidden noundef nonnull align 8 dereferenceable(8) ptr @_ZNK4llvm8ArrayRefINS_3LLTEEixEm(ptr noundef nonnull align 8 dereferenceable(16) %0, i64 noundef %1) #0 comdat align 2 {
  %3 = alloca ptr, align 8
  %4 = alloca i64, align 8
  store ptr %0, ptr %3, align 8
  store i64 %1, ptr %4, align 8
  %5 = load ptr, ptr %3, align 8
  %6 = getelementptr inbounds nuw %"class.llvm::ArrayRef.537", ptr %5, i32 0, i32 0
  %7 = load ptr, ptr %6, align 8
  %8 = load i64, ptr %4, align 8
  %9 = getelementptr inbounds %"class.llvm::LLT", ptr %7, i64 %8
  ret ptr %9
}

; Function Attrs: mustprogress nounwind uwtable
define internal noundef zeroext i1 @"_ZZN4llvm20AArch64LegalizerInfoC1ERKNS_16AArch64SubtargetEENK4$_40clERKNS_13LegalityQueryE"(ptr noundef nonnull align 8 dereferenceable(72) %0, ptr noundef nonnull align 8 dereferenceable(40) %1) #0 align 2 {
  %3 = alloca ptr, align 8
  %4 = alloca ptr, align 8
  %5 = alloca ptr, align 8
  store ptr %0, ptr %3, align 8
  store ptr %1, ptr %4, align 8
  %6 = load ptr, ptr %3, align 8
  %7 = load ptr, ptr %4, align 8
  %8 = getelementptr inbounds nuw %"struct.llvm::LegalityQuery", ptr %7, i32 0, i32 1
  %9 = call noundef nonnull align 8 dereferenceable(8) ptr @_ZNK4llvm8ArrayRefINS_3LLTEEixEm(ptr noundef nonnull align 8 dereferenceable(16) %8, i64 noundef 1)
  store ptr %9, ptr %5, align 8
  %10 = load ptr, ptr %5, align 8
  %11 = getelementptr inbounds nuw %class.anon.244, ptr %6, i32 0, i32 0
  %12 = call noundef zeroext i1 @_ZNK4llvm3LLTeqERKS0_(ptr noundef nonnull align 8 dereferenceable(8) %10, ptr noundef nonnull align 8 dereferenceable(8) %11)
  br i1 %12, label %45, label %13

13:                                               ; preds = %2
  %14 = load ptr, ptr %5, align 8
  %15 = getelementptr inbounds nuw %class.anon.244, ptr %6, i32 0, i32 1
  %16 = call noundef zeroext i1 @_ZNK4llvm3LLTeqERKS0_(ptr noundef nonnull align 8 dereferenceable(8) %14, ptr noundef nonnull align 8 dereferenceable(8) %15)
  br i1 %16, label %45, label %17

17:                                               ; preds = %13
  %18 = load ptr, ptr %5, align 8
  %19 = getelementptr inbounds nuw %class.anon.244, ptr %6, i32 0, i32 2
  %20 = call noundef zeroext i1 @_ZNK4llvm3LLTeqERKS0_(ptr noundef nonnull align 8 dereferenceable(8) %18, ptr noundef nonnull align 8 dereferenceable(8) %19)
  br i1 %20, label %45, label %21

21:                                               ; preds = %17
  %22 = load ptr, ptr %5, align 8
  %23 = getelementptr inbounds nuw %class.anon.244, ptr %6, i32 0, i32 3
  %24 = call noundef zeroext i1 @_ZNK4llvm3LLTeqERKS0_(ptr noundef nonnull align 8 dereferenceable(8) %22, ptr noundef nonnull align 8 dereferenceable(8) %23)
  br i1 %24, label %45, label %25

25:                                               ; preds = %21
  %26 = load ptr, ptr %5, align 8
  %27 = getelementptr inbounds nuw %class.anon.244, ptr %6, i32 0, i32 4
  %28 = call noundef zeroext i1 @_ZNK4llvm3LLTeqERKS0_(ptr noundef nonnull align 8 dereferenceable(8) %26, ptr noundef nonnull align 8 dereferenceable(8) %27)
  br i1 %28, label %45, label %29

29:                                               ; preds = %25
  %30 = load ptr, ptr %5, align 8
  %31 = getelementptr inbounds nuw %class.anon.244, ptr %6, i32 0, i32 5
  %32 = call noundef zeroext i1 @_ZNK4llvm3LLTeqERKS0_(ptr noundef nonnull align 8 dereferenceable(8) %30, ptr noundef nonnull align 8 dereferenceable(8) %31)
  br i1 %32, label %45, label %33

33:                                               ; preds = %29
  %34 = load ptr, ptr %5, align 8
  %35 = getelementptr inbounds nuw %class.anon.244, ptr %6, i32 0, i32 6
  %36 = call noundef zeroext i1 @_ZNK4llvm3LLTeqERKS0_(ptr noundef nonnull align 8 dereferenceable(8) %34, ptr noundef nonnull align 8 dereferenceable(8) %35)
  br i1 %36, label %45, label %37

37:                                               ; preds = %33
  %38 = load ptr, ptr %5, align 8
  %39 = getelementptr inbounds nuw %class.anon.244, ptr %6, i32 0, i32 7
  %40 = call noundef zeroext i1 @_ZNK4llvm3LLTeqERKS0_(ptr noundef nonnull align 8 dereferenceable(8) %38, ptr noundef nonnull align 8 dereferenceable(8) %39)
  br i1 %40, label %45, label %41

41:                                               ; preds = %37
  %42 = load ptr, ptr %5, align 8
  %43 = getelementptr inbounds nuw %class.anon.244, ptr %6, i32 0, i32 8
  %44 = call noundef zeroext i1 @_ZNK4llvm3LLTeqERKS0_(ptr noundef nonnull align 8 dereferenceable(8) %42, ptr noundef nonnull align 8 dereferenceable(8) %43)
  br label %45

45:                                               ; preds = %41, %37, %33, %29, %25, %21, %17, %13, %2
  %46 = phi i1 [ true, %37 ], [ true, %33 ], [ true, %29 ], [ true, %25 ], [ true, %21 ], [ true, %17 ], [ true, %13 ], [ true, %2 ], [ %44, %41 ]
  ret i1 %46
}

; Function Attrs: mustprogress nounwind uwtable
define linkonce_odr hidden noundef ptr @_ZNKSt9_Any_data9_M_accessEv(ptr noundef nonnull align 8 dereferenceable(16) %0) #0 comdat align 2 {
  %2 = alloca ptr, align 8
  store ptr %0, ptr %2, align 8
  %3 = load ptr, ptr %2, align 8
  %4 = getelementptr inbounds [16 x i8], ptr %3, i64 0, i64 0
  ret ptr %4
}

; Function Attrs: mustprogress nounwind uwtable
define internal noundef zeroext i1 @"_ZSt13__invoke_implIbRZN4llvm20AArch64LegalizerInfoC1ERKNS0_16AArch64SubtargetEE4$_40JRKNS0_13LegalityQueryEEET_St14__invoke_otherOT0_DpOT1_"(ptr noundef nonnull align 8 dereferenceable(72) %0, ptr noundef nonnull align 8 dereferenceable(40) %1) #0 {
  %3 = alloca ptr, align 8
  %4 = alloca ptr, align 8
  store ptr %0, ptr %3, align 8
  store ptr %1, ptr %4, align 8
  %5 = load ptr, ptr %3, align 8
  %6 = load ptr, ptr %4, align 8
  %7 = call noundef zeroext i1 @"_ZZN4llvm20AArch64LegalizerInfoC1ERKNS_16AArch64SubtargetEENK4$_40clERKNS_13LegalityQueryE"(ptr noundef nonnull align 8 dereferenceable(72) %5, ptr noundef nonnull align 8 dereferenceable(40) %6)
  ret i1 %7
}

; Function Attrs: mustprogress nounwind uwtable
define internal noundef nonnull align 8 dereferenceable(8) ptr @"_ZNKSt9_Any_data9_M_accessIPZN4llvm20AArch64LegalizerInfoC1ERKNS1_16AArch64SubtargetEE4$_40EERKT_v"(ptr noundef nonnull align 8 dereferenceable(16) %0) #0 align 2 {
  %2 = alloca ptr, align 8
  store ptr %0, ptr %2, align 8
  %3 = load ptr, ptr %2, align 8
  %4 = call noundef ptr @_ZNKSt9_Any_data9_M_accessEv(ptr noundef nonnull align 8 dereferenceable(16) %3) #10
  ret ptr %4
}

; Function Attrs: mustprogress nounwind uwtable
define internal noundef zeroext i1 @"_ZSt10__invoke_rIbRZN4llvm20AArch64LegalizerInfoC1ERKNS0_16AArch64SubtargetEE4$_40JRKNS0_13LegalityQueryEEENSt9enable_ifIX16is_invocable_r_vIT_T0_DpT1_EESB_E4typeEOSC_DpOSD_"(ptr noundef nonnull align 8 dereferenceable(72) %0, ptr noundef nonnull align 8 dereferenceable(40) %1) #0 {
  %3 = alloca ptr, align 8
  %4 = alloca ptr, align 8
  store ptr %0, ptr %3, align 8
  store ptr %1, ptr %4, align 8
  %5 = load ptr, ptr %3, align 8
  %6 = load ptr, ptr %4, align 8
  %7 = call noundef zeroext i1 @"_ZSt13__invoke_implIbRZN4llvm20AArch64LegalizerInfoC1ERKNS0_16AArch64SubtargetEE4$_40JRKNS0_13LegalityQueryEEET_St14__invoke_otherOT0_DpOT1_"(ptr noundef nonnull align 8 dereferenceable(72) %5, ptr noundef nonnull align 8 dereferenceable(40) %6)
  ret i1 %7
}

; Function Attrs: mustprogress nounwind uwtable
define internal noundef ptr @"_ZNSt14_Function_base13_Base_managerIZN4llvm20AArch64LegalizerInfoC1ERKNS1_16AArch64SubtargetEE4$_40E14_M_get_pointerERKSt9_Any_data"(ptr noundef nonnull align 8 dereferenceable(16) %0) #0 align 2 {
  %2 = alloca ptr, align 8
  store ptr %0, ptr %2, align 8
  %3 = load ptr, ptr %2, align 8
  %4 = call noundef nonnull align 8 dereferenceable(8) ptr @"_ZNKSt9_Any_data9_M_accessIPZN4llvm20AArch64LegalizerInfoC1ERKNS1_16AArch64SubtargetEE4$_40EERKT_v"(ptr noundef nonnull align 8 dereferenceable(16) %3) #10
  %5 = load ptr, ptr %4, align 8
  ret ptr %5
}

; Function Attrs: mustprogress nounwind uwtable
define internal noundef zeroext i1 @"_ZNSt17_Function_handlerIFbRKN4llvm13LegalityQueryEEZNS0_20AArch64LegalizerInfoC1ERKNS0_16AArch64SubtargetEE4$_40E9_M_invokeERKSt9_Any_dataS3_"(ptr noundef nonnull align 8 dereferenceable(16) %0, ptr noundef nonnull align 8 dereferenceable(40) %1) #0 align 2 {
  %3 = alloca ptr, align 8
  %4 = alloca ptr, align 8
  store ptr %0, ptr %3, align 8
  store ptr %1, ptr %4, align 8
  %5 = load ptr, ptr %3, align 8
  %6 = call noundef ptr @"_ZNSt14_Function_base13_Base_managerIZN4llvm20AArch64LegalizerInfoC1ERKNS1_16AArch64SubtargetEE4$_40E14_M_get_pointerERKSt9_Any_data"(ptr noundef nonnull align 8 dereferenceable(16) %5) #10
  %7 = load ptr, ptr %4, align 8
  %8 = call noundef zeroext i1 @"_ZSt10__invoke_rIbRZN4llvm20AArch64LegalizerInfoC1ERKNS0_16AArch64SubtargetEE4$_40JRKNS0_13LegalityQueryEEENSt9enable_ifIX16is_invocable_r_vIT_T0_DpT1_EESB_E4typeEOSC_DpOSD_"(ptr noundef nonnull align 8 dereferenceable(72) %6, ptr noundef nonnull align 8 dereferenceable(40) %7)
  ret i1 %8
}