; Function Attrs: mustprogress nofree norecurse nosync nounwind willreturn memory(read, inaccessiblemem: none) uwtable
define internal noundef zeroext i1 @"_ZNSt17_Function_handlerIFbRKN4llvm13LegalityQueryEEZNS0_20AArch64LegalizerInfoC1ERKNS0_16AArch64SubtargetEE4$_40E9_M_invokeERKSt9_Any_dataS3_"(ptr nocapture noundef nonnull readonly align 8 dereferenceable(16) %0, ptr nocapture noundef nonnull readonly align 8 dereferenceable(40) %1) #11 align 2 {
  %.val = load ptr, ptr %0, align 8
  %3 = getelementptr inbounds i8, ptr %1, i64 8
  %.val2 = load ptr, ptr %3, align 8
  %4 = getelementptr i8, ptr %.val2, i64 8
  %.val2.val = load i64, ptr %4, align 8
  %5 = load i64, ptr %.val, align 8
  %spec.select.i.i.i.i = icmp eq i64 %.val2.val, %5
  %6 = getelementptr inbounds nuw i8, ptr %.val, i64 8
  %7 = load i64, ptr %6, align 8
  %spec.select.i11.i.i.i = icmp eq i64 %.val2.val, %7
  %or.cond.i.i.i = select i1 %spec.select.i.i.i.i, i1 true, i1 %spec.select.i11.i.i.i
  %8 = getelementptr inbounds nuw i8, ptr %.val, i64 16
  %9 = load i64, ptr %8, align 8
  %spec.select.i12.i.i.i = icmp eq i64 %.val2.val, %9
  %or.cond3.i.i.i = select i1 %or.cond.i.i.i, i1 true, i1 %spec.select.i12.i.i.i
  %10 = getelementptr inbounds nuw i8, ptr %.val, i64 24
  %11 = load i64, ptr %10, align 8
  %spec.select.i13.i.i.i = icmp eq i64 %.val2.val, %11
  %or.cond5.i.i.i = select i1 %or.cond3.i.i.i, i1 true, i1 %spec.select.i13.i.i.i
  %12 = getelementptr inbounds nuw i8, ptr %.val, i64 32
  %13 = load i64, ptr %12, align 8
  %spec.select.i14.i.i.i = icmp eq i64 %.val2.val, %13
  %or.cond7.i.i.i = select i1 %or.cond5.i.i.i, i1 true, i1 %spec.select.i14.i.i.i
  %14 = getelementptr inbounds nuw i8, ptr %.val, i64 40
  %15 = load i64, ptr %14, align 8
  %spec.select.i15.i.i.i = icmp eq i64 %.val2.val, %15
  %or.cond9.i.i.i = select i1 %or.cond7.i.i.i, i1 true, i1 %spec.select.i15.i.i.i
  %16 = getelementptr inbounds nuw i8, ptr %.val, i64 48
  %17 = load i64, ptr %16, align 8
  %spec.select.i16.i.i.i = icmp eq i64 %.val2.val, %17
  %or.cond11.i.i.i = select i1 %or.cond9.i.i.i, i1 true, i1 %spec.select.i16.i.i.i
  %18 = getelementptr inbounds nuw i8, ptr %.val, i64 56
  %19 = load i64, ptr %18, align 8
  %spec.select.i17.i.i.i = icmp eq i64 %.val2.val, %19
  %or.cond13.i.i.i = select i1 %or.cond11.i.i.i, i1 true, i1 %spec.select.i17.i.i.i
  br i1 %or.cond13.i.i.i, label %"_ZSt10__invoke_rIbRZN4llvm20AArch64LegalizerInfoC1ERKNS0_16AArch64SubtargetEE4$_40JRKNS0_13LegalityQueryEEENSt9enable_ifIX16is_invocable_r_vIT_T0_DpT1_EESB_E4typeEOSC_DpOSD_.exit", label %20

20:                                               ; preds = %2
  %21 = getelementptr inbounds nuw i8, ptr %.val, i64 64
  %22 = load i64, ptr %21, align 8
  %spec.select.i18.i.i.i = icmp eq i64 %.val2.val, %22
  br label %"_ZSt10__invoke_rIbRZN4llvm20AArch64LegalizerInfoC1ERKNS0_16AArch64SubtargetEE4$_40JRKNS0_13LegalityQueryEEENSt9enable_ifIX16is_invocable_r_vIT_T0_DpT1_EESB_E4typeEOSC_DpOSD_.exit"

"_ZSt10__invoke_rIbRZN4llvm20AArch64LegalizerInfoC1ERKNS0_16AArch64SubtargetEE4$_40JRKNS0_13LegalityQueryEEENSt9enable_ifIX16is_invocable_r_vIT_T0_DpT1_EESB_E4typeEOSC_DpOSD_.exit": ; preds = %2, %20
  %23 = phi i1 [ true, %2 ], [ %spec.select.i18.i.i.i, %20 ]
  ret i1 %23
}